target datalayout = "e-m:e-p270:32:32-p271:32:32-p272:64:64-i64:64-i128:128-f80:128-n8:16:32:64-S128"
target triple = "x86_64-pc-linux-gnu"

%struct.SurfaceDataRasInfo = type { %struct.SurfaceDataBounds, ptr, i32, i32, i32, i32, ptr, ptr, ptr, ptr, ptr, ptr, i32, %union.anon.0 }
%struct.SurfaceDataBounds = type { i32, i32, i32, i32 }
%union.anon.0 = type { ptr, [56 x i8] }
%struct._CompositeInfo = type { i32, %union.anon.1, i32 }
%union.anon.1 = type { float }

; Function Attrs: nounwind uwtable
define hidden void @IntArgbToIntRgbxXorBlit(ptr noundef %0, ptr noundef %1, i32 noundef %2, i32 noundef %3, ptr noundef %4, ptr noundef %5, ptr noundef %6, ptr noundef %7) #1 {
  %9 = alloca ptr, align 8
  %10 = alloca ptr, align 8
  %11 = alloca i32, align 4
  %12 = alloca i32, align 4
  %13 = alloca ptr, align 8
  %14 = alloca ptr, align 8
  %15 = alloca ptr, align 8
  %16 = alloca ptr, align 8
  %17 = alloca i32, align 4
  %18 = alloca i32, align 4
  %19 = alloca ptr, align 8
  %20 = alloca ptr, align 8
  %21 = alloca i32, align 4
  %22 = alloca i32, align 4
  %23 = alloca i32, align 4
  %24 = alloca i32, align 4
  store ptr %0, ptr %9, align 8
  store ptr %1, ptr %10, align 8
  store i32 %2, ptr %11, align 4
  store i32 %3, ptr %12, align 4
  store ptr %4, ptr %13, align 8
  store ptr %5, ptr %14, align 8
  store ptr %6, ptr %15, align 8
  store ptr %7, ptr %16, align 8
  %25 = load ptr, ptr %16, align 8
  %26 = getelementptr inbounds %struct._CompositeInfo, ptr %25, i32 0, i32 1
  %27 = load i32, ptr %26, align 4
  store i32 %27, ptr %17, align 4
  %28 = load ptr, ptr %16, align 8
  %29 = getelementptr inbounds %struct._CompositeInfo, ptr %28, i32 0, i32 2
  %30 = load i32, ptr %29, align 4
  store i32 %30, ptr %18, align 4
  br label %31

31:                                               ; preds = %8
  %32 = load ptr, ptr %9, align 8
  store ptr %32, ptr %19, align 8
  %33 = load ptr, ptr %10, align 8
  store ptr %33, ptr %20, align 8
  %34 = load ptr, ptr %13, align 8
  %35 = getelementptr inbounds %struct.SurfaceDataRasInfo, ptr %34, i32 0, i32 4
  %36 = load i32, ptr %35, align 8
  store i32 %36, ptr %21, align 4
  %37 = load ptr, ptr %14, align 8
  %38 = getelementptr inbounds %struct.SurfaceDataRasInfo, ptr %37, i32 0, i32 4
  %39 = load i32, ptr %38, align 8
  store i32 %39, ptr %22, align 4
  %40 = load i32, ptr %11, align 4
  %41 = mul i32 %40, 4
  %42 = load i32, ptr %21, align 4
  %43 = sub i32 %42, %41
  store i32 %43, ptr %21, align 4
  %44 = load i32, ptr %11, align 4
  %45 = mul i32 %44, 4
  %46 = load i32, ptr %22, align 4
  %47 = sub i32 %46, %45
  store i32 %47, ptr %22, align 4
  br label %48

48:                                               ; preds = %97, %31
  %49 = load i32, ptr %11, align 4
  store i32 %49, ptr %23, align 4
  br label %50

50:                                               ; preds = %80, %48
  br label %51

51:                                               ; preds = %50
  %52 = load ptr, ptr %19, align 8
  %53 = getelementptr inbounds i32, ptr %52, i64 0
  %54 = load i32, ptr %53, align 4
  store i32 %54, ptr %24, align 4
  %55 = load i32, ptr %24, align 4
  %56 = icmp sge i32 %55, 0
  br i1 %56, label %57, label %58

57:                                               ; preds = %51
  br label %71

58:                                               ; preds = %51
  %59 = load i32, ptr %24, align 4
  %60 = shl i32 %59, 8
  store i32 %60, ptr %24, align 4
  %61 = load i32, ptr %24, align 4
  %62 = load i32, ptr %17, align 4
  %63 = xor i32 %61, %62
  %64 = load i32, ptr %18, align 4
  %65 = xor i32 %64, -1
  %66 = and i32 %63, %65
  %67 = load ptr, ptr %20, align 8
  %68 = getelementptr inbounds i32, ptr %67, i64 0
  %69 = load i32, ptr %68, align 4
  %70 = xor i32 %69, %66
  store i32 %70, ptr %68, align 4
  br label %71

71:                                               ; preds = %58, %57
  %72 = load ptr, ptr %19, align 8
  %73 = ptrtoint ptr %72 to i64
  %74 = add nsw i64 %73, 4
  %75 = inttoptr i64 %74 to ptr
  store ptr %75, ptr %19, align 8
  %76 = load ptr, ptr %20, align 8
  %77 = ptrtoint ptr %76 to i64
  %78 = add nsw i64 %77, 4
  %79 = inttoptr i64 %78 to ptr
  store ptr %79, ptr %20, align 8
  br label %80

80:                                               ; preds = %71
  %81 = load i32, ptr %23, align 4
  %82 = add i32 %81, -1
  store i32 %82, ptr %23, align 4
  %83 = icmp ugt i32 %82, 0
  br i1 %83, label %50, label %84, !llvm.loop !35

84:                                               ; preds = %80
  %85 = load ptr, ptr %19, align 8
  %86 = ptrtoint ptr %85 to i64
  %87 = load i32, ptr %21, align 4
  %88 = sext i32 %87 to i64
  %89 = add nsw i64 %86, %88
  %90 = inttoptr i64 %89 to ptr
  store ptr %90, ptr %19, align 8
  %91 = load ptr, ptr %20, align 8
  %92 = ptrtoint ptr %91 to i64
  %93 = load i32, ptr %22, align 4
  %94 = sext i32 %93 to i64
  %95 = add nsw i64 %92, %94
  %96 = inttoptr i64 %95 to ptr
  store ptr %96, ptr %20, align 8
  br label %97

97:                                               ; preds = %84
  %98 = load i32, ptr %12, align 4
  %99 = add i32 %98, -1
  store i32 %99, ptr %12, align 4
  %100 = icmp ugt i32 %99, 0
  br i1 %100, label %48, label %101, !llvm.loop !36

101:                                              ; preds = %97
  br label %102

102:                                              ; preds = %101
  ret void
}