; Function Attrs: nofree norecurse nosync nounwind memory(readwrite, inaccessiblemem: none) uwtable
define hidden void @IntArgbToIntRgbxXorBlit(ptr noundef %0, ptr noundef %1, i32 noundef %2, i32 noundef %3, ptr nocapture noundef readonly %4, ptr nocapture noundef readonly %5, ptr nocapture readnone %6, ptr nocapture noundef readonly %7) #1 {
  %9 = getelementptr inbounds i8, ptr %7, i64 4
  %10 = load i32, ptr %9, align 4
  %11 = getelementptr inbounds i8, ptr %7, i64 8
  %12 = load i32, ptr %11, align 4
  %13 = getelementptr inbounds i8, ptr %4, i64 32
  %14 = load i32, ptr %13, align 8
  %15 = getelementptr inbounds i8, ptr %5, i64 32
  %16 = load i32, ptr %15, align 8
  %17 = shl i32 %2, 2
  %18 = sub i32 %14, %17
  %19 = sub i32 %16, %17
  %20 = sext i32 %18 to i64
  %21 = xor i32 %12, -1
  %22 = sext i32 %19 to i64
  br label %23

23:                                               ; preds = %41, %8
  %.028 = phi i32 [ %3, %8 ], [ %46, %41 ]
  %.026 = phi ptr [ %0, %8 ], [ %43, %41 ]
  %.025 = phi ptr [ %1, %8 ], [ %45, %41 ]
  br label %24

24:                                               ; preds = %33, %23
  %.127 = phi ptr [ %.026, %23 ], [ %36, %33 ]
  %.1 = phi ptr [ %.025, %23 ], [ %39, %33 ]
  %.0 = phi i32 [ %2, %23 ], [ %40, %33 ]
  %25 = load i32, ptr %.127, align 4
  %26 = icmp sgt i32 %25, -1
  br i1 %26, label %33, label %27

27:                                               ; preds = %24
  %28 = shl i32 %25, 8
  %29 = xor i32 %28, %10
  %30 = and i32 %29, %21
  %31 = load i32, ptr %.1, align 4
  %32 = xor i32 %31, %30
  store i32 %32, ptr %.1, align 4
  br label %33

33:                                               ; preds = %24, %27
  %34 = ptrtoint ptr %.127 to i64
  %35 = add nsw i64 %34, 4
  %36 = inttoptr i64 %35 to ptr
  %37 = ptrtoint ptr %.1 to i64
  %38 = add nsw i64 %37, 4
  %39 = inttoptr i64 %38 to ptr
  %40 = add i32 %.0, -1
  %.not = icmp eq i32 %40, 0
  br i1 %.not, label %41, label %24, !llvm.loop !35

41:                                               ; preds = %33
  %42 = add nsw i64 %35, %20
  %43 = inttoptr i64 %42 to ptr
  %44 = add nsw i64 %38, %22
  %45 = inttoptr i64 %44 to ptr
  %46 = add i32 %.028, -1
  %.not32 = icmp eq i32 %46, 0
  br i1 %.not32, label %47, label %23, !llvm.loop !36

47:                                               ; preds = %41
  ret void
}